target datalayout = "e-m:e-p270:32:32-p271:32:32-p272:64:64-i64:64-i128:128-f80:128-n8:16:32:64-S128"
target triple = "x86_64-pc-linux-gnu"

@.str.24 = private unnamed_addr constant [26 x i8] c"../openssl/test/destest.c\00", align 1
@.str.92 = private unnamed_addr constant [27 x i8] c"ctx = EVP_CIPHER_CTX_new()\00", align 1
@.str.107 = private unnamed_addr constant [53 x i8] c"cipher = EVP_CIPHER_fetch(NULL, \22DES-EDE-ECB\22, NULL)\00", align 1
@.str.108 = private unnamed_addr constant [12 x i8] c"DES-EDE-ECB\00", align 1

; Function Attrs: nounwind uwtable
define internal i32 @test_des_two_key() #0 {
  %1 = alloca i32, align 4
  %2 = alloca ptr, align 8
  %3 = alloca ptr, align 8
  %4 = alloca [16 x i8], align 16
  call void @llvm.lifetime.start.p0(i64 4, ptr %1) #6
  store i32 0, ptr %1, align 4, !tbaa !4
  call void @llvm.lifetime.start.p0(i64 8, ptr %2) #6
  store ptr null, ptr %2, align 8, !tbaa !15
  call void @llvm.lifetime.start.p0(i64 8, ptr %3) #6
  store ptr null, ptr %3, align 8, !tbaa !18
  call void @llvm.lifetime.start.p0(i64 16, ptr %4) #6
  %5 = call ptr @EVP_CIPHER_fetch(ptr noundef null, ptr noundef @.str.108, ptr noundef null)
  store ptr %5, ptr %2, align 8, !tbaa !15
  %6 = call i32 @test_ptr(ptr noundef @.str.24, i32 noundef 860, ptr noundef @.str.107, ptr noundef %5)
  %7 = icmp ne i32 %6, 0
  br i1 %7, label %8, label %26

8:                                                ; preds = %0
  %9 = call ptr @EVP_CIPHER_CTX_new()
  store ptr %9, ptr %3, align 8, !tbaa !18
  %10 = call i32 @test_ptr(ptr noundef @.str.24, i32 noundef 861, ptr noundef @.str.92, ptr noundef %9)
  %11 = icmp ne i32 %10, 0
  br i1 %11, label %12, label %26

12:                                               ; preds = %8
  %13 = load ptr, ptr %3, align 8, !tbaa !18
  %14 = load ptr, ptr %2, align 8, !tbaa !15
  %15 = call i32 @EVP_CipherInit_ex(ptr noundef %13, ptr noundef %14, ptr noundef null, ptr noundef null, ptr noundef null, i32 noundef 1)
  %16 = icmp ne i32 %15, 0
  br i1 %16, label %17, label %26

17:                                               ; preds = %12
  %18 = load ptr, ptr %3, align 8, !tbaa !18
  %19 = call i32 @EVP_CIPHER_CTX_set_key_length(ptr noundef %18, i32 noundef 16)
  %20 = icmp ne i32 %19, 0
  br i1 %20, label %21, label %26

21:                                               ; preds = %17
  %22 = load ptr, ptr %3, align 8, !tbaa !18
  %23 = getelementptr inbounds [16 x i8], ptr %4, i64 0, i64 0
  %24 = call i32 @EVP_CIPHER_CTX_rand_key(ptr noundef %22, ptr noundef %23)
  %25 = icmp ne i32 %24, 0
  br i1 %25, label %27, label %26

26:                                               ; preds = %21, %17, %12, %8, %0
  br label %28

27:                                               ; preds = %21
  store i32 1, ptr %1, align 4, !tbaa !4
  br label %28

28:                                               ; preds = %27, %26
  %29 = load ptr, ptr %2, align 8, !tbaa !15
  call void @EVP_CIPHER_free(ptr noundef %29)
  %30 = load ptr, ptr %3, align 8, !tbaa !18
  call void @EVP_CIPHER_CTX_free(ptr noundef %30)
  %31 = load i32, ptr %1, align 4, !tbaa !4
  call void @llvm.lifetime.end.p0(i64 16, ptr %4) #6
  call void @llvm.lifetime.end.p0(i64 8, ptr %3) #6
  call void @llvm.lifetime.end.p0(i64 8, ptr %2) #6
  call void @llvm.lifetime.end.p0(i64 4, ptr %1) #6
  ret i32 %31
}