; Function Attrs: nounwind uwtable
define internal range(i32 0, 2) i32 @test_des_two_key() #0 {
  %1 = alloca [16 x i8], align 16
  call void @llvm.lifetime.start.p0(i64 16, ptr nonnull %1) #6
  %2 = tail call ptr @EVP_CIPHER_fetch(ptr noundef null, ptr noundef nonnull @.str.108, ptr noundef null) #6
  %3 = tail call i32 @test_ptr(ptr noundef nonnull @.str.24, i32 noundef 860, ptr noundef nonnull @.str.107, ptr noundef %2) #6
  %.not = icmp eq i32 %3, 0
  br i1 %.not, label %13, label %4

4:                                                ; preds = %0
  %5 = tail call ptr @EVP_CIPHER_CTX_new() #6
  %6 = tail call i32 @test_ptr(ptr noundef nonnull @.str.24, i32 noundef 861, ptr noundef nonnull @.str.92, ptr noundef %5) #6
  %.not7 = icmp eq i32 %6, 0
  br i1 %.not7, label %13, label %7

7:                                                ; preds = %4
  %8 = tail call i32 @EVP_CipherInit_ex(ptr noundef %5, ptr noundef %2, ptr noundef null, ptr noundef null, ptr noundef null, i32 noundef 1) #6
  %.not8 = icmp eq i32 %8, 0
  br i1 %.not8, label %13, label %9

9:                                                ; preds = %7
  %10 = tail call i32 @EVP_CIPHER_CTX_set_key_length(ptr noundef %5, i32 noundef 16) #6
  %.not9 = icmp eq i32 %10, 0
  br i1 %.not9, label %13, label %11

11:                                               ; preds = %9
  %12 = call i32 @EVP_CIPHER_CTX_rand_key(ptr noundef %5, ptr noundef nonnull %1) #6
  %.not10 = icmp ne i32 %12, 0
  %spec.select = zext i1 %.not10 to i32
  br label %13

13:                                               ; preds = %11, %0, %4, %7, %9
  %.06 = phi i32 [ 0, %9 ], [ 0, %7 ], [ 0, %4 ], [ 0, %0 ], [ %spec.select, %11 ]
  %.0 = phi ptr [ %5, %9 ], [ %5, %7 ], [ %5, %4 ], [ null, %0 ], [ %5, %11 ]
  call void @EVP_CIPHER_free(ptr noundef %2) #6
  call void @EVP_CIPHER_CTX_free(ptr noundef %.0) #6
  call void @llvm.lifetime.end.p0(i64 16, ptr nonnull %1) #6
  ret i32 %.06
}